target datalayout = "e-m:e-p270:32:32-p271:32:32-p272:64:64-i64:64-i128:128-f80:128-n8:16:32:64-S128"
target triple = "x86_64-unknown-linux-gnu"

%"class.hermes::vm::HermesValue" = type { i64 }
%"class.hermes::vm::JSObject" = type { %"class.hermes::vm::GCCell", %"struct.hermes::vm::ObjectFlags", %"class.hermes::vm::GCPointer", %"class.hermes::vm::GCPointer.159", %"class.hermes::vm::GCPointer.160" }
%"class.hermes::vm::GCCell" = type { %union.anon.1 }
%union.anon.1 = type { %"class.hermes::vm::KindAndSize" }
%"class.hermes::vm::KindAndSize" = type { i32 }
%"struct.hermes::vm::ObjectFlags" = type { i32 }
%"class.hermes::vm::GCPointer" = type { %"class.hermes::vm::GCPointerBase" }
%"class.hermes::vm::GCPointerBase" = type { %"class.hermes::vm::CompressedPointer" }
%"class.hermes::vm::CompressedPointer" = type { %"class.hermes::vm::BasedPointer" }
%"class.hermes::vm::BasedPointer" = type { i32 }
%"class.hermes::vm::GCPointer.159" = type { %"class.hermes::vm::GCPointerBase" }
%"class.hermes::vm::GCPointer.160" = type { %"class.hermes::vm::GCPointerBase" }
%"class.hermes::vm::HandleBase" = type { ptr }
%"class.hermes::vm::JSTypedArrayBase" = type { %"class.hermes::vm::JSObject", %"class.hermes::vm::GCPointer.161", i32, i32 }
%"class.hermes::vm::GCPointer.161" = type { %"class.hermes::vm::GCPointerBase" }
%"class.hermes::vm::Handle.163" = type { %"class.hermes::vm::HandleBase" }

@_ZZNK6hermes2vm16JSTypedArrayBase12getByteWidthEvE6widths = internal constant [11 x i8] c"\01\02\04\01\01\02\04\04\08\08\08", align 1

; Function Attrs: mustprogress nounwind uwtable
define linkonce_odr hidden noundef i32 @_ZNK6hermes2vm12BasedPointer11getRawValueEv(ptr noundef nonnull align 4 dereferenceable(4) %this) #0 comdat align 2 {
entry:
  %this.addr = alloca ptr, align 8
  store ptr %this, ptr %this.addr, align 8
  %this1 = load ptr, ptr %this.addr, align 8
  %raw_ = getelementptr inbounds %"class.hermes::vm::BasedPointer", ptr %this1, i32 0, i32 0
  %0 = load i32, ptr %raw_, align 4
  ret i32 %0
}

; Function Attrs: mustprogress nounwind uwtable
define linkonce_odr hidden noundef ptr @_ZNK6hermes2vm11PointerBase21basedToPointerNonNullENS0_12BasedPointerE(ptr noundef nonnull align 1 dereferenceable(1) %this, i32 %ptr.coerce) #0 comdat align 2 {
entry:
  %ptr = alloca %"class.hermes::vm::BasedPointer", align 4
  %this.addr = alloca ptr, align 8
  %addr = alloca i64, align 8
  %coerce.dive = getelementptr inbounds %"class.hermes::vm::BasedPointer", ptr %ptr, i32 0, i32 0
  store i32 %ptr.coerce, ptr %coerce.dive, align 4
  store ptr %this, ptr %this.addr, align 8
  %this1 = load ptr, ptr %this.addr, align 8
  %0 = ptrtoint ptr %this1 to i64
  %call = call noundef i32 @_ZNK6hermes2vm12BasedPointer11getRawValueEv(ptr noundef nonnull align 4 dereferenceable(4) %ptr)
  %conv = zext i32 %call to i64
  %add = add i64 %0, %conv
  store i64 %add, ptr %addr, align 8
  %1 = load i64, ptr %addr, align 8
  %2 = inttoptr i64 %1 to ptr
  ret ptr %2
}

; Function Attrs: mustprogress nounwind uwtable
define linkonce_odr hidden noundef zeroext i1 @_ZNK6hermes2vm12BasedPointercvbEv(ptr noundef nonnull align 4 dereferenceable(4) %this) #0 comdat align 2 {
entry:
  %this.addr = alloca ptr, align 8
  store ptr %this, ptr %this.addr, align 8
  %this1 = load ptr, ptr %this.addr, align 8
  %raw_ = getelementptr inbounds %"class.hermes::vm::BasedPointer", ptr %this1, i32 0, i32 0
  %0 = load i32, ptr %raw_, align 4
  %cmp = icmp ne i32 %0, 0
  ret i1 %cmp
}

; Function Attrs: mustprogress nounwind uwtable
define linkonce_odr hidden noundef ptr @_ZNK6hermes2vm11PointerBase14basedToPointerENS0_12BasedPointerE(ptr noundef nonnull align 1 dereferenceable(1) %this, i32 %ptr.coerce) #0 comdat align 2 {
entry:
  %ptr = alloca %"class.hermes::vm::BasedPointer", align 4
  %this.addr = alloca ptr, align 8
  %agg.tmp = alloca %"class.hermes::vm::BasedPointer", align 4
  %coerce.dive = getelementptr inbounds %"class.hermes::vm::BasedPointer", ptr %ptr, i32 0, i32 0
  store i32 %ptr.coerce, ptr %coerce.dive, align 4
  store ptr %this, ptr %this.addr, align 8
  %this1 = load ptr, ptr %this.addr, align 8
  %call = call noundef zeroext i1 @_ZNK6hermes2vm12BasedPointercvbEv(ptr noundef nonnull align 4 dereferenceable(4) %ptr)
  br i1 %call, label %cond.true, label %cond.false

cond.true:                                        ; preds = %entry
  call void @llvm.memcpy.p0.p0.i64(ptr align 4 %agg.tmp, ptr align 4 %ptr, i64 4, i1 false)
  %coerce.dive2 = getelementptr inbounds %"class.hermes::vm::BasedPointer", ptr %agg.tmp, i32 0, i32 0
  %0 = load i32, ptr %coerce.dive2, align 4
  %call3 = call noundef ptr @_ZNK6hermes2vm11PointerBase21basedToPointerNonNullENS0_12BasedPointerE(ptr noundef nonnull align 1 dereferenceable(1) %this1, i32 %0)
  br label %cond.end

cond.false:                                       ; preds = %entry
  br label %cond.end

cond.end:                                         ; preds = %cond.false, %cond.true
  %cond = phi ptr [ %call3, %cond.true ], [ null, %cond.false ]
  ret ptr %cond
}

; Function Attrs: mustprogress nounwind uwtable
define linkonce_odr hidden noundef ptr @_ZNK6hermes2vm11HermesValue10getPointerEv(ptr noundef nonnull align 8 dereferenceable(8) %this) #0 comdat align 2 {
entry:
  %this.addr = alloca ptr, align 8
  store ptr %this, ptr %this.addr, align 8
  %this1 = load ptr, ptr %this.addr, align 8
  %raw_ = getelementptr inbounds %"class.hermes::vm::HermesValue", ptr %this1, i32 0, i32 0
  %0 = load i64, ptr %raw_, align 8
  %and = and i64 %0, 281474976710655
  %1 = inttoptr i64 %and to ptr
  ret ptr %1
}

; Function Attrs: mustprogress nounwind uwtable
define linkonce_odr hidden noundef ptr @_ZN6hermes2vm17CompressedPointer20storageTypeToPointerENS0_12BasedPointerERNS0_11PointerBaseE(i32 %st.coerce, ptr noundef nonnull align 1 dereferenceable(1) %base) #0 comdat align 2 {
entry:
  %st = alloca %"class.hermes::vm::BasedPointer", align 4
  %base.addr = alloca ptr, align 8
  %agg.tmp = alloca %"class.hermes::vm::BasedPointer", align 4
  %coerce.dive = getelementptr inbounds %"class.hermes::vm::BasedPointer", ptr %st, i32 0, i32 0
  store i32 %st.coerce, ptr %coerce.dive, align 4
  store ptr %base, ptr %base.addr, align 8
  %0 = load ptr, ptr %base.addr, align 8
  call void @llvm.memcpy.p0.p0.i64(ptr align 4 %agg.tmp, ptr align 4 %st, i64 4, i1 false)
  %coerce.dive1 = getelementptr inbounds %"class.hermes::vm::BasedPointer", ptr %agg.tmp, i32 0, i32 0
  %1 = load i32, ptr %coerce.dive1, align 4
  %call = call noundef ptr @_ZNK6hermes2vm11PointerBase14basedToPointerENS0_12BasedPointerE(ptr noundef nonnull align 1 dereferenceable(1) %0, i32 %1)
  ret ptr %call
}

; Function Attrs: mustprogress nounwind uwtable
define linkonce_odr hidden noundef ptr @_ZNK6hermes2vm11HermesValue9getObjectEv(ptr noundef nonnull align 8 dereferenceable(8) %this) #0 comdat align 2 {
entry:
  %this.addr = alloca ptr, align 8
  store ptr %this, ptr %this.addr, align 8
  %this1 = load ptr, ptr %this.addr, align 8
  %call = call noundef ptr @_ZNK6hermes2vm11HermesValue10getPointerEv(ptr noundef nonnull align 8 dereferenceable(8) %this1)
  ret ptr %call
}

; Function Attrs: mustprogress nounwind uwtable
define linkonce_odr hidden noundef i32 @_ZNK6hermes2vm11KindAndSize7getKindEv(ptr noundef nonnull align 4 dereferenceable(4) %this) #0 comdat align 2 {
entry:
  %this.addr = alloca ptr, align 8
  store ptr %this, ptr %this.addr, align 8
  %this1 = load ptr, ptr %this.addr, align 8
  %bf.load = load i32, ptr %this1, align 4
  %bf.lshr = lshr i32 %bf.load, 24
  ret i32 %bf.lshr
}

; Function Attrs: mustprogress nounwind uwtable
define linkonce_odr hidden noundef ptr @_ZN6hermes2vm14vmcast_or_nullINS0_13JSArrayBufferEEEPT_PNS0_6GCCellE(ptr noundef %cell) #0 comdat {
entry:
  %cell.addr = alloca ptr, align 8
  store ptr %cell, ptr %cell.addr, align 8
  %0 = load ptr, ptr %cell.addr, align 8
  ret ptr %0
}

; Function Attrs: mustprogress nounwind uwtable
define linkonce_odr hidden noundef ptr @_ZNK6hermes2vm17CompressedPointer3getERNS0_11PointerBaseE(ptr noundef nonnull align 4 dereferenceable(4) %this, ptr noundef nonnull align 1 dereferenceable(1) %base) #0 comdat align 2 {
entry:
  %this.addr = alloca ptr, align 8
  %base.addr = alloca ptr, align 8
  %agg.tmp = alloca %"class.hermes::vm::BasedPointer", align 4
  store ptr %this, ptr %this.addr, align 8
  store ptr %base, ptr %base.addr, align 8
  %this1 = load ptr, ptr %this.addr, align 8
  %ptr_ = getelementptr inbounds %"class.hermes::vm::CompressedPointer", ptr %this1, i32 0, i32 0
  call void @llvm.memcpy.p0.p0.i64(ptr align 4 %agg.tmp, ptr align 4 %ptr_, i64 4, i1 false)
  %0 = load ptr, ptr %base.addr, align 8
  %coerce.dive = getelementptr inbounds %"class.hermes::vm::BasedPointer", ptr %agg.tmp, i32 0, i32 0
  %1 = load i32, ptr %coerce.dive, align 4
  %call = call noundef ptr @_ZN6hermes2vm17CompressedPointer20storageTypeToPointerENS0_12BasedPointerERNS0_11PointerBaseE(i32 %1, ptr noundef nonnull align 1 dereferenceable(1) %0)
  ret ptr %call
}

; Function Attrs: mustprogress nounwind uwtable
define linkonce_odr hidden noundef ptr @_ZN6hermes2vm17HermesValueTraitsINS0_16JSTypedArrayBaseELb1EE6decodeENS0_11HermesValueE(i64 %value.coerce) #0 comdat align 2 {
entry:
  %value = alloca %"class.hermes::vm::HermesValue", align 8
  %coerce.dive = getelementptr inbounds %"class.hermes::vm::HermesValue", ptr %value, i32 0, i32 0
  store i64 %value.coerce, ptr %coerce.dive, align 8
  %call = call noundef ptr @_ZNK6hermes2vm11HermesValue9getObjectEv(ptr noundef nonnull align 8 dereferenceable(8) %value)
  ret ptr %call
}

; Function Attrs: mustprogress nounwind uwtable
define linkonce_odr hidden noundef i32 @_ZNK6hermes2vm6GCCell7getKindEv(ptr noundef nonnull align 4 dereferenceable(4) %this) #0 comdat align 2 {
entry:
  %this.addr = alloca ptr, align 8
  store ptr %this, ptr %this.addr, align 8
  %this1 = load ptr, ptr %this.addr, align 8
  %0 = getelementptr inbounds %"class.hermes::vm::GCCell", ptr %this1, i32 0, i32 0
  %call = call noundef i32 @_ZNK6hermes2vm11KindAndSize7getKindEv(ptr noundef nonnull align 4 dereferenceable(4) %0)
  ret i32 %call
}

; Function Attrs: mustprogress nounwind uwtable
define linkonce_odr hidden noundef ptr @_ZNK6hermes2vm9GCPointerINS0_13JSArrayBufferEE3getERNS0_11PointerBaseE(ptr noundef nonnull align 4 dereferenceable(4) %this, ptr noundef nonnull align 1 dereferenceable(1) %base) #0 comdat align 2 {
entry:
  %this.addr = alloca ptr, align 8
  %base.addr = alloca ptr, align 8
  store ptr %this, ptr %this.addr, align 8
  store ptr %base, ptr %base.addr, align 8
  %this1 = load ptr, ptr %this.addr, align 8
  %0 = load ptr, ptr %base.addr, align 8
  %call = call noundef ptr @_ZNK6hermes2vm17CompressedPointer3getERNS0_11PointerBaseE(ptr noundef nonnull align 4 dereferenceable(4) %this1, ptr noundef nonnull align 1 dereferenceable(1) %0)
  %call2 = call noundef ptr @_ZN6hermes2vm14vmcast_or_nullINS0_13JSArrayBufferEEEPT_PNS0_6GCCellE(ptr noundef %call)
  ret ptr %call2
}

; Function Attrs: mustprogress nounwind uwtable
define linkonce_odr hidden noundef ptr @_ZN6hermes2vm17HermesValueTraitsINS0_16JSTypedArrayBaseELb1EE5arrowERKNS0_11HermesValueE(ptr noundef nonnull align 8 dereferenceable(8) %value) #0 comdat align 2 {
entry:
  %value.addr = alloca ptr, align 8
  %res = alloca ptr, align 8
  %agg.tmp = alloca %"class.hermes::vm::HermesValue", align 8
  store ptr %value, ptr %value.addr, align 8
  %0 = load ptr, ptr %value.addr, align 8
  call void @llvm.memcpy.p0.p0.i64(ptr align 8 %agg.tmp, ptr align 8 %0, i64 8, i1 false)
  %coerce.dive = getelementptr inbounds %"class.hermes::vm::HermesValue", ptr %agg.tmp, i32 0, i32 0
  %1 = load i64, ptr %coerce.dive, align 8
  %call = call noundef ptr @_ZN6hermes2vm17HermesValueTraitsINS0_16JSTypedArrayBaseELb1EE6decodeENS0_11HermesValueE(i64 %1)
  store ptr %call, ptr %res, align 8
  %2 = load ptr, ptr %res, align 8
  ret ptr %2
}

; Function Attrs: mustprogress nounwind uwtable
define linkonce_odr hidden noundef ptr @_ZNK6hermes2vm10HandleBase9handleRefEv(ptr noundef nonnull align 8 dereferenceable(8) %this) #0 comdat align 2 {
entry:
  %this.addr = alloca ptr, align 8
  store ptr %this, ptr %this.addr, align 8
  %this1 = load ptr, ptr %this.addr, align 8
  %handle_ = getelementptr inbounds %"class.hermes::vm::HandleBase", ptr %this1, i32 0, i32 0
  %0 = load ptr, ptr %handle_, align 8
  ret ptr %0
}

; Function Attrs: mustprogress nounwind uwtable
define linkonce_odr hidden noundef i32 @_ZNK6hermes2vm16JSTypedArrayBase13getByteOffsetEv(ptr noundef nonnull align 4 dereferenceable(32) %this) #0 comdat align 2 {
entry:
  %this.addr = alloca ptr, align 8
  store ptr %this, ptr %this.addr, align 8
  %this1 = load ptr, ptr %this.addr, align 8
  %offset_ = getelementptr inbounds %"class.hermes::vm::JSTypedArrayBase", ptr %this1, i32 0, i32 3
  %0 = load i32, ptr %offset_, align 4
  ret i32 %0
}

; Function Attrs: mustprogress nounwind uwtable
define hidden noundef zeroext i8 @_ZNK6hermes2vm16JSTypedArrayBase12getByteWidthEv(ptr noundef nonnull align 4 dereferenceable(32) %this) #0 align 2 {
entry:
  %this.addr = alloca ptr, align 8
  store ptr %this, ptr %this.addr, align 8
  %this1 = load ptr, ptr %this.addr, align 8
  %call = call noundef i32 @_ZNK6hermes2vm6GCCell7getKindEv(ptr noundef nonnull align 4 dereferenceable(4) %this1)
  %conv = sext i32 %call to i64
  %sub = sub i64 %conv, 35
  %arrayidx = getelementptr inbounds [11 x i8], ptr @_ZZNK6hermes2vm16JSTypedArrayBase12getByteWidthEvE6widths, i64 0, i64 %sub
  %0 = load i8, ptr %arrayidx, align 1
  ret i8 %0
}

; Function Attrs: mustprogress nounwind uwtable
define linkonce_odr hidden noundef ptr @_ZNK6hermes2vm16JSTypedArrayBase9getBufferERNS0_7RuntimeE(ptr noundef nonnull align 4 dereferenceable(32) %this, ptr noundef nonnull align 8 dereferenceable(9832) %runtime) #0 comdat align 2 {
entry:
  %this.addr = alloca ptr, align 8
  %runtime.addr = alloca ptr, align 8
  store ptr %this, ptr %this.addr, align 8
  store ptr %runtime, ptr %runtime.addr, align 8
  %this1 = load ptr, ptr %this.addr, align 8
  %buffer_ = getelementptr inbounds %"class.hermes::vm::JSTypedArrayBase", ptr %this1, i32 0, i32 1
  %0 = load ptr, ptr %runtime.addr, align 8
  %call = call noundef ptr @_ZNK6hermes2vm9GCPointerINS0_13JSArrayBufferEE3getERNS0_11PointerBaseE(ptr noundef nonnull align 4 dereferenceable(4) %buffer_, ptr noundef nonnull align 1 dereferenceable(1) %0)
  ret ptr %call
}

; Function Attrs: mustprogress nounwind uwtable
define linkonce_odr hidden noundef ptr @_ZNK6hermes2vm6HandleINS0_16JSTypedArrayBaseEEptEv(ptr noundef nonnull align 8 dereferenceable(8) %this) #0 comdat align 2 {
entry:
  %this.addr = alloca ptr, align 8
  store ptr %this, ptr %this.addr, align 8
  %this1 = load ptr, ptr %this.addr, align 8
  %call = call noundef ptr @_ZNK6hermes2vm10HandleBase9handleRefEv(ptr noundef nonnull align 8 dereferenceable(8) %this1)
  %call2 = call noundef ptr @_ZN6hermes2vm17HermesValueTraitsINS0_16JSTypedArrayBaseELb1EE5arrowERKNS0_11HermesValueE(ptr noundef nonnull align 8 dereferenceable(8) %call)
  ret ptr %call2
}

; Function Attrs: mustprogress nounwind uwtable
define hidden void @_ZN6hermes2vm16JSTypedArrayBase16setToCopyOfBytesERNS0_7RuntimeENS0_6HandleIS1_EEjS5_jj(ptr noundef nonnull align 8 dereferenceable(9832) %runtime, ptr %dst.coerce, i32 noundef %dstIndex, ptr %src.coerce, i32 noundef %srcIndex, i32 noundef %count) #0 align 2 {
entry:
  %dst = alloca %"class.hermes::vm::Handle.163", align 8
  %src = alloca %"class.hermes::vm::Handle.163", align 8
  %runtime.addr = alloca ptr, align 8
  %dstIndex.addr = alloca i32, align 4
  %srcIndex.addr = alloca i32, align 4
  %count.addr = alloca i32, align 4
  %coerce.dive = getelementptr inbounds %"class.hermes::vm::Handle.163", ptr %dst, i32 0, i32 0
  %coerce.dive1 = getelementptr inbounds %"class.hermes::vm::HandleBase", ptr %coerce.dive, i32 0, i32 0
  store ptr %dst.coerce, ptr %coerce.dive1, align 8
  %coerce.dive2 = getelementptr inbounds %"class.hermes::vm::Handle.163", ptr %src, i32 0, i32 0
  %coerce.dive3 = getelementptr inbounds %"class.hermes::vm::HandleBase", ptr %coerce.dive2, i32 0, i32 0
  store ptr %src.coerce, ptr %coerce.dive3, align 8
  store ptr %runtime, ptr %runtime.addr, align 8
  store i32 %dstIndex, ptr %dstIndex.addr, align 4
  store i32 %srcIndex, ptr %srcIndex.addr, align 4
  store i32 %count, ptr %count.addr, align 4
  %0 = load ptr, ptr %runtime.addr, align 8
  %call = call noundef ptr @_ZNK6hermes2vm6HandleINS0_16JSTypedArrayBaseEEptEv(ptr noundef nonnull align 8 dereferenceable(8) %dst)
  %1 = load ptr, ptr %runtime.addr, align 8
  %call4 = call noundef ptr @_ZNK6hermes2vm16JSTypedArrayBase9getBufferERNS0_7RuntimeE(ptr noundef nonnull align 4 dereferenceable(32) %call, ptr noundef nonnull align 8 dereferenceable(9832) %1)
  %2 = load i32, ptr %dstIndex.addr, align 4
  %call5 = call noundef ptr @_ZNK6hermes2vm6HandleINS0_16JSTypedArrayBaseEEptEv(ptr noundef nonnull align 8 dereferenceable(8) %dst)
  %call6 = call noundef zeroext i8 @_ZNK6hermes2vm16JSTypedArrayBase12getByteWidthEv(ptr noundef nonnull align 4 dereferenceable(32) %call5)
  %conv = zext i8 %call6 to i32
  %mul = mul i32 %2, %conv
  %call7 = call noundef ptr @_ZNK6hermes2vm6HandleINS0_16JSTypedArrayBaseEEptEv(ptr noundef nonnull align 8 dereferenceable(8) %dst)
  %call8 = call noundef i32 @_ZNK6hermes2vm16JSTypedArrayBase13getByteOffsetEv(ptr noundef nonnull align 4 dereferenceable(32) %call7)
  %add = add i32 %mul, %call8
  %call9 = call noundef ptr @_ZNK6hermes2vm6HandleINS0_16JSTypedArrayBaseEEptEv(ptr noundef nonnull align 8 dereferenceable(8) %src)
  %3 = load ptr, ptr %runtime.addr, align 8
  %call10 = call noundef ptr @_ZNK6hermes2vm16JSTypedArrayBase9getBufferERNS0_7RuntimeE(ptr noundef nonnull align 4 dereferenceable(32) %call9, ptr noundef nonnull align 8 dereferenceable(9832) %3)
  %4 = load i32, ptr %srcIndex.addr, align 4
  %call11 = call noundef ptr @_ZNK6hermes2vm6HandleINS0_16JSTypedArrayBaseEEptEv(ptr noundef nonnull align 8 dereferenceable(8) %src)
  %call12 = call noundef zeroext i8 @_ZNK6hermes2vm16JSTypedArrayBase12getByteWidthEv(ptr noundef nonnull align 4 dereferenceable(32) %call11)
  %conv13 = zext i8 %call12 to i32
  %mul14 = mul i32 %4, %conv13
  %call15 = call noundef ptr @_ZNK6hermes2vm6HandleINS0_16JSTypedArrayBaseEEptEv(ptr noundef nonnull align 8 dereferenceable(8) %src)
  %call16 = call noundef i32 @_ZNK6hermes2vm16JSTypedArrayBase13getByteOffsetEv(ptr noundef nonnull align 4 dereferenceable(32) %call15)
  %add17 = add i32 %mul14, %call16
  %5 = load i32, ptr %count.addr, align 4
  %call18 = call noundef ptr @_ZNK6hermes2vm6HandleINS0_16JSTypedArrayBaseEEptEv(ptr noundef nonnull align 8 dereferenceable(8) %dst)
  %call19 = call noundef zeroext i8 @_ZNK6hermes2vm16JSTypedArrayBase12getByteWidthEv(ptr noundef nonnull align 4 dereferenceable(32) %call18)
  %conv20 = zext i8 %call19 to i32
  %mul21 = mul i32 %5, %conv20
  call void @_ZN6hermes2vm13JSArrayBuffer18copyDataBlockBytesERNS0_7RuntimeEPS1_jS4_jj(ptr noundef nonnull align 8 dereferenceable(9832) %0, ptr noundef %call4, i32 noundef %add, ptr noundef %call10, i32 noundef %add17, i32 noundef %mul21)
  ret void
}