; Function Attrs: mustprogress nounwind uwtable
define hidden void @_ZN6hermes2vm16JSTypedArrayBase16setToCopyOfBytesERNS0_7RuntimeENS0_6HandleIS1_EEjS5_jj(ptr noundef nonnull align 8 dereferenceable(9832) %runtime, ptr readonly captures(none) %dst.coerce, i32 noundef %dstIndex, ptr readonly captures(none) %src.coerce, i32 noundef %srcIndex, i32 noundef %count) local_unnamed_addr #1 align 2 {
entry:
  %agg.tmp.sroa.0.0.copyload.i.i = load i64, ptr %dst.coerce, align 8
  %and.i.i.i.i.i = and i64 %agg.tmp.sroa.0.0.copyload.i.i, 281474976710655
  %0 = inttoptr i64 %and.i.i.i.i.i to ptr
  %buffer_.i = getelementptr inbounds nuw i8, ptr %0, i64 20
  %agg.tmp.sroa.0.0.copyload.i.i.i = load i32, ptr %buffer_.i, align 4
  %cmp.i.not.i.i.i.i.i = icmp eq i32 %agg.tmp.sroa.0.0.copyload.i.i.i, 0
  %1 = ptrtoint ptr %runtime to i64
  %conv.i.i.i.i.i.i = zext i32 %agg.tmp.sroa.0.0.copyload.i.i.i to i64
  %add.i.i.i.i.i.i = add i64 %conv.i.i.i.i.i.i, %1
  %2 = inttoptr i64 %add.i.i.i.i.i.i to ptr
  %cond.i.i.i.i.i = select i1 %cmp.i.not.i.i.i.i.i, ptr null, ptr %2
  %bf.load.i.i.i = load i32, ptr %0, align 4
  %bf.lshr.i.i.i = lshr i32 %bf.load.i.i.i, 24
  %conv.i = zext nneg i32 %bf.lshr.i.i.i to i64
  %sub.i = add nsw i64 %conv.i, -35
  %arrayidx.i = getelementptr inbounds [11 x i8], ptr @_ZZNK6hermes2vm16JSTypedArrayBase12getByteWidthEvE6widths, i64 0, i64 %sub.i
  %3 = load i8, ptr %arrayidx.i, align 1
  %conv = zext i8 %3 to i32
  %mul = mul i32 %dstIndex, %conv
  %offset_.i = getelementptr inbounds nuw i8, ptr %0, i64 28
  %4 = load i32, ptr %offset_.i, align 4
  %add = add i32 %mul, %4
  %agg.tmp.sroa.0.0.copyload.i.i7 = load i64, ptr %src.coerce, align 8
  %and.i.i.i.i.i8 = and i64 %agg.tmp.sroa.0.0.copyload.i.i7, 281474976710655
  %5 = inttoptr i64 %and.i.i.i.i.i8 to ptr
  %buffer_.i9 = getelementptr inbounds nuw i8, ptr %5, i64 20
  %agg.tmp.sroa.0.0.copyload.i.i.i10 = load i32, ptr %buffer_.i9, align 4
  %cmp.i.not.i.i.i.i.i11 = icmp eq i32 %agg.tmp.sroa.0.0.copyload.i.i.i10, 0
  %conv.i.i.i.i.i.i12 = zext i32 %agg.tmp.sroa.0.0.copyload.i.i.i10 to i64
  %add.i.i.i.i.i.i13 = add i64 %conv.i.i.i.i.i.i12, %1
  %6 = inttoptr i64 %add.i.i.i.i.i.i13 to ptr
  %cond.i.i.i.i.i14 = select i1 %cmp.i.not.i.i.i.i.i11, ptr null, ptr %6
  %bf.load.i.i.i17 = load i32, ptr %5, align 4
  %bf.lshr.i.i.i18 = lshr i32 %bf.load.i.i.i17, 24
  %conv.i19 = zext nneg i32 %bf.lshr.i.i.i18 to i64
  %sub.i20 = add nsw i64 %conv.i19, -35
  %arrayidx.i21 = getelementptr inbounds [11 x i8], ptr @_ZZNK6hermes2vm16JSTypedArrayBase12getByteWidthEvE6widths, i64 0, i64 %sub.i20
  %7 = load i8, ptr %arrayidx.i21, align 1
  %conv13 = zext i8 %7 to i32
  %mul14 = mul i32 %srcIndex, %conv13
  %offset_.i24 = getelementptr inbounds nuw i8, ptr %5, i64 28
  %8 = load i32, ptr %offset_.i24, align 4
  %add17 = add i32 %mul14, %8
  %mul21 = mul i32 %count, %conv
  tail call void @_ZN6hermes2vm13JSArrayBuffer18copyDataBlockBytesERNS0_7RuntimeEPS1_jS4_jj(ptr noundef nonnull align 8 dereferenceable(9832) %runtime, ptr noundef %cond.i.i.i.i.i, i32 noundef %add, ptr noundef %cond.i.i.i.i.i14, i32 noundef %add17, i32 noundef %mul21) #10
  ret void
}